Archive member included because of file (symbol)

c:/program files/gnu tools arm embedded/4.8 2014q2/bin/../lib/gcc/arm-none-eabi/4.8.4/armv7-m\libgcc.a(_arm_addsubdf3.o)
                              ..\obj\main.o (__aeabi_i2d)
c:/program files/gnu tools arm embedded/4.8 2014q2/bin/../lib/gcc/arm-none-eabi/4.8.4/armv7-m\libgcc.a(_arm_muldivdf3.o)
                              ..\obj\main.o (__aeabi_dmul)
c:/program files/gnu tools arm embedded/4.8 2014q2/bin/../lib/gcc/arm-none-eabi/4.8.4/armv7-m\libgcc.a(_arm_fixunsdfsi.o)
                              ..\obj\main.o (__aeabi_d2uiz)

Allocating common symbols
Common symbol       size              file

tmp                 0x2               ..\obj\main.o
dma                 0x2c              ..\obj\main.o
rx                  0x2               ..\obj\main.o
NVIC_InitStructure1
                    0x4               ..\obj\main.o
GPIO_InitStructure  0x4               ..\obj\main.o
NVIC_InitStructure  0x4               ..\obj\main.o
tx_end              0x2               ..\obj\main.o

Discarded input sections

 .text          0x00000000        0x0 ..\obj\stm32f10x_tim.o
 .data          0x00000000        0x0 ..\obj\stm32f10x_tim.o
 .bss           0x00000000        0x0 ..\obj\stm32f10x_tim.o
 .text.TIM_DeInit
                0x00000000      0x22c ..\obj\stm32f10x_tim.o
 .text.TIM_OC1Init
                0x00000000      0x118 ..\obj\stm32f10x_tim.o
 .text.TIM_OC2Init
                0x00000000      0x110 ..\obj\stm32f10x_tim.o
 .text.TIM_OC3Init
                0x00000000      0x10c ..\obj\stm32f10x_tim.o
 .text.TIM_OC4Init
                0x00000000       0xd0 ..\obj\stm32f10x_tim.o
 .text.TIM_ICInit
                0x00000000       0xa8 ..\obj\stm32f10x_tim.o
 .text.TIM_PWMIConfig
                0x00000000       0xb8 ..\obj\stm32f10x_tim.o
 .text.TIM_BDTRConfig
                0x00000000       0x50 ..\obj\stm32f10x_tim.o
 .text.TIM_OCStructInit
                0x00000000       0x44 ..\obj\stm32f10x_tim.o
 .text.TIM_ICStructInit
                0x00000000       0x30 ..\obj\stm32f10x_tim.o
 .text.TIM_BDTRStructInit
                0x00000000       0x3c ..\obj\stm32f10x_tim.o
 .text.TIM_CtrlPWMOutputs
                0x00000000       0x4c ..\obj\stm32f10x_tim.o
 .text.TIM_GenerateEvent
                0x00000000       0x1c ..\obj\stm32f10x_tim.o
 .text.TIM_DMAConfig
                0x00000000       0x28 ..\obj\stm32f10x_tim.o
 .text.TIM_DMACmd
                0x00000000       0x48 ..\obj\stm32f10x_tim.o
 .text.TIM_InternalClockConfig
                0x00000000       0x24 ..\obj\stm32f10x_tim.o
 .text.TIM_ITRxExternalClockConfig
                0x00000000       0x2c ..\obj\stm32f10x_tim.o
 .text.TIM_TIxExternalClockConfig
                0x00000000       0x54 ..\obj\stm32f10x_tim.o
 .text.TIM_ETRClockMode1Config
                0x00000000       0x50 ..\obj\stm32f10x_tim.o
 .text.TIM_ETRClockMode2Config
                0x00000000       0x30 ..\obj\stm32f10x_tim.o
 .text.TIM_ETRConfig
                0x00000000       0x48 ..\obj\stm32f10x_tim.o
 .text.TIM_PrescalerConfig
                0x00000000       0x28 ..\obj\stm32f10x_tim.o
 .text.TIM_CounterModeConfig
                0x00000000       0x38 ..\obj\stm32f10x_tim.o
 .text.TIM_SelectInputTrigger
                0x00000000       0x38 ..\obj\stm32f10x_tim.o
 .text.TIM_ForcedOC1Config
                0x00000000       0x38 ..\obj\stm32f10x_tim.o
 .text.TIM_ForcedOC2Config
                0x00000000       0x3c ..\obj\stm32f10x_tim.o
 .text.TIM_ForcedOC3Config
                0x00000000       0x38 ..\obj\stm32f10x_tim.o
 .text.TIM_ForcedOC4Config
                0x00000000       0x3c ..\obj\stm32f10x_tim.o
 .text.TIM_ARRPreloadConfig
                0x00000000       0x40 ..\obj\stm32f10x_tim.o
 .text.TIM_SelectCOM
                0x00000000       0x40 ..\obj\stm32f10x_tim.o
 .text.TIM_SelectCCDMA
                0x00000000       0x40 ..\obj\stm32f10x_tim.o
 .text.TIM_CCPreloadControl
                0x00000000       0x40 ..\obj\stm32f10x_tim.o
 .text.TIM_OC1PreloadConfig
                0x00000000       0x38 ..\obj\stm32f10x_tim.o
 .text.TIM_OC2PreloadConfig
                0x00000000       0x3c ..\obj\stm32f10x_tim.o
 .text.TIM_OC3PreloadConfig
                0x00000000       0x38 ..\obj\stm32f10x_tim.o
 .text.TIM_OC4PreloadConfig
                0x00000000       0x3c ..\obj\stm32f10x_tim.o
 .text.TIM_OC1FastConfig
                0x00000000       0x38 ..\obj\stm32f10x_tim.o
 .text.TIM_OC2FastConfig
                0x00000000       0x3c ..\obj\stm32f10x_tim.o
 .text.TIM_OC3FastConfig
                0x00000000       0x38 ..\obj\stm32f10x_tim.o
 .text.TIM_OC4FastConfig
                0x00000000       0x3c ..\obj\stm32f10x_tim.o
 .text.TIM_ClearOC1Ref
                0x00000000       0x38 ..\obj\stm32f10x_tim.o
 .text.TIM_ClearOC2Ref
                0x00000000       0x3c ..\obj\stm32f10x_tim.o
 .text.TIM_ClearOC3Ref
                0x00000000       0x38 ..\obj\stm32f10x_tim.o
 .text.TIM_ClearOC4Ref
                0x00000000       0x3c ..\obj\stm32f10x_tim.o
 .text.TIM_OC1PolarityConfig
                0x00000000       0x38 ..\obj\stm32f10x_tim.o
 .text.TIM_OC1NPolarityConfig
                0x00000000       0x38 ..\obj\stm32f10x_tim.o
 .text.TIM_OC2PolarityConfig
                0x00000000       0x3c ..\obj\stm32f10x_tim.o
 .text.TIM_OC2NPolarityConfig
                0x00000000       0x3c ..\obj\stm32f10x_tim.o
 .text.TIM_OC3PolarityConfig
                0x00000000       0x3c ..\obj\stm32f10x_tim.o
 .text.TIM_OC3NPolarityConfig
                0x00000000       0x3c ..\obj\stm32f10x_tim.o
 .text.TIM_OC4PolarityConfig
                0x00000000       0x3c ..\obj\stm32f10x_tim.o
 .text.TIM_CCxCmd
                0x00000000       0x54 ..\obj\stm32f10x_tim.o
 .text.TIM_CCxNCmd
                0x00000000       0x54 ..\obj\stm32f10x_tim.o
 .text.TIM_SelectOCxM
                0x00000000       0xa8 ..\obj\stm32f10x_tim.o
 .text.TIM_UpdateDisableConfig
                0x00000000       0x40 ..\obj\stm32f10x_tim.o
 .text.TIM_UpdateRequestConfig
                0x00000000       0x40 ..\obj\stm32f10x_tim.o
 .text.TIM_SelectHallSensor
                0x00000000       0x40 ..\obj\stm32f10x_tim.o
 .text.TIM_SelectOnePulseMode
                0x00000000       0x38 ..\obj\stm32f10x_tim.o
 .text.TIM_SelectOutputTrigger
                0x00000000       0x38 ..\obj\stm32f10x_tim.o
 .text.TIM_SelectSlaveMode
                0x00000000       0x38 ..\obj\stm32f10x_tim.o
 .text.TIM_SelectMasterSlaveMode
                0x00000000       0x38 ..\obj\stm32f10x_tim.o
 .text.TIM_SetCounter
                0x00000000       0x1c ..\obj\stm32f10x_tim.o
 .text.TIM_SetAutoreload
                0x00000000       0x1c ..\obj\stm32f10x_tim.o
 .text.TIM_SetCompare1
                0x00000000       0x1c ..\obj\stm32f10x_tim.o
 .text.TIM_SetCompare2
                0x00000000       0x1c ..\obj\stm32f10x_tim.o
 .text.TIM_SetCompare3
                0x00000000       0x1c ..\obj\stm32f10x_tim.o
 .text.TIM_SetCompare4
                0x00000000       0x20 ..\obj\stm32f10x_tim.o
 .text.TIM_SetIC1Prescaler
                0x00000000       0x38 ..\obj\stm32f10x_tim.o
 .text.TIM_SetIC2Prescaler
                0x00000000       0x3c ..\obj\stm32f10x_tim.o
 .text.TIM_SetIC3Prescaler
                0x00000000       0x38 ..\obj\stm32f10x_tim.o
 .text.TIM_SetIC4Prescaler
                0x00000000       0x3c ..\obj\stm32f10x_tim.o
 .text.TIM_SetClockDivision
                0x00000000       0x38 ..\obj\stm32f10x_tim.o
 .text.TIM_GetCapture1
                0x00000000       0x1c ..\obj\stm32f10x_tim.o
 .text.TIM_GetCapture2
                0x00000000       0x1c ..\obj\stm32f10x_tim.o
 .text.TIM_GetCapture3
                0x00000000       0x1c ..\obj\stm32f10x_tim.o
 .text.TIM_GetCapture4
                0x00000000       0x1c ..\obj\stm32f10x_tim.o
 .text.TIM_GetCounter
                0x00000000       0x1c ..\obj\stm32f10x_tim.o
 .text.TIM_GetPrescaler
                0x00000000       0x1c ..\obj\stm32f10x_tim.o
 .text.TIM_GetFlagStatus
                0x00000000       0x38 ..\obj\stm32f10x_tim.o
 .text.TIM_ClearFlag
                0x00000000       0x20 ..\obj\stm32f10x_tim.o
 .text.TI1_Config
                0x00000000       0xd4 ..\obj\stm32f10x_tim.o
 .text.TI2_Config
                0x00000000       0xe8 ..\obj\stm32f10x_tim.o
 .text.TI3_Config
                0x00000000       0xe0 ..\obj\stm32f10x_tim.o
 .text.TI4_Config
                0x00000000       0xec ..\obj\stm32f10x_tim.o
 .text          0x00000000        0x0 ..\obj\startup_stm32f10x_md_vl.o
 .data          0x00000000        0x0 ..\obj\startup_stm32f10x_md_vl.o
 .bss           0x00000000        0x0 ..\obj\startup_stm32f10x_md_vl.o
 .text          0x00000000        0x0 ..\obj\stm32f10x_dbgmcu.o
 .data          0x00000000        0x0 ..\obj\stm32f10x_dbgmcu.o
 .bss           0x00000000        0x0 ..\obj\stm32f10x_dbgmcu.o
 .text.DBGMCU_GetREVID
                0x00000000       0x18 ..\obj\stm32f10x_dbgmcu.o
 .text.DBGMCU_GetDEVID
                0x00000000       0x1c ..\obj\stm32f10x_dbgmcu.o
 .text.DBGMCU_Config
                0x00000000       0x3c ..\obj\stm32f10x_dbgmcu.o
 .debug_info    0x00000000      0x15e ..\obj\stm32f10x_dbgmcu.o
 .debug_abbrev  0x00000000       0xde ..\obj\stm32f10x_dbgmcu.o
 .debug_aranges
                0x00000000       0x30 ..\obj\stm32f10x_dbgmcu.o
 .debug_ranges  0x00000000       0x20 ..\obj\stm32f10x_dbgmcu.o
 .debug_line    0x00000000      0x1fb ..\obj\stm32f10x_dbgmcu.o
 .debug_str     0x00000000      0x209 ..\obj\stm32f10x_dbgmcu.o
 .comment       0x00000000       0x71 ..\obj\stm32f10x_dbgmcu.o
 .ARM.attributes
                0x00000000       0x33 ..\obj\stm32f10x_dbgmcu.o
 .debug_frame   0x00000000       0x5c ..\obj\stm32f10x_dbgmcu.o
 .text          0x00000000        0x0 ..\obj\system_stm32f10x.o
 .data          0x00000000       0x14 ..\obj\system_stm32f10x.o
 .bss           0x00000000        0x0 ..\obj\system_stm32f10x.o
 .text.SystemCoreClockUpdate
                0x00000000       0xd4 ..\obj\system_stm32f10x.o
 .text          0x00000000        0x0 ..\obj\stm32f10x_pwr.o
 .data          0x00000000        0x0 ..\obj\stm32f10x_pwr.o
 .bss           0x00000000        0x0 ..\obj\stm32f10x_pwr.o
 .text.PWR_DeInit
                0x00000000       0x1c ..\obj\stm32f10x_pwr.o
 .text.PWR_BackupAccessCmd
                0x00000000       0x20 ..\obj\stm32f10x_pwr.o
 .text.PWR_PVDCmd
                0x00000000       0x20 ..\obj\stm32f10x_pwr.o
 .text.PWR_PVDLevelConfig
                0x00000000       0x38 ..\obj\stm32f10x_pwr.o
 .text.PWR_WakeUpPinCmd
                0x00000000       0x20 ..\obj\stm32f10x_pwr.o
 .text.PWR_EnterSTOPMode
                0x00000000       0x64 ..\obj\stm32f10x_pwr.o
 .text.PWR_EnterSTANDBYMode
                0x00000000       0x3c ..\obj\stm32f10x_pwr.o
 .text.PWR_GetFlagStatus
                0x00000000       0x34 ..\obj\stm32f10x_pwr.o
 .text.PWR_ClearFlag
                0x00000000       0x24 ..\obj\stm32f10x_pwr.o
 .debug_info    0x00000000      0x482 ..\obj\stm32f10x_pwr.o
 .debug_abbrev  0x00000000      0x17f ..\obj\stm32f10x_pwr.o
 .debug_aranges
                0x00000000       0x60 ..\obj\stm32f10x_pwr.o
 .debug_ranges  0x00000000       0x50 ..\obj\stm32f10x_pwr.o
 .debug_line    0x00000000      0x29d ..\obj\stm32f10x_pwr.o
 .debug_str     0x00000000      0x339 ..\obj\stm32f10x_pwr.o
 .comment       0x00000000       0x71 ..\obj\stm32f10x_pwr.o
 .ARM.attributes
                0x00000000       0x33 ..\obj\stm32f10x_pwr.o
 .debug_frame   0x00000000      0x108 ..\obj\stm32f10x_pwr.o
 .text          0x00000000        0x0 ..\obj\stm32f10x_gpio.o
 .data          0x00000000        0x0 ..\obj\stm32f10x_gpio.o
 .bss           0x00000000        0x0 ..\obj\stm32f10x_gpio.o
 .text.GPIO_DeInit
                0x00000000       0xe4 ..\obj\stm32f10x_gpio.o
 .text.GPIO_AFIODeInit
                0x00000000       0x18 ..\obj\stm32f10x_gpio.o
 .text.GPIO_StructInit
                0x00000000       0x28 ..\obj\stm32f10x_gpio.o
 .text.GPIO_ReadInputDataBit
                0x00000000       0x34 ..\obj\stm32f10x_gpio.o
 .text.GPIO_ReadInputData
                0x00000000       0x1c ..\obj\stm32f10x_gpio.o
 .text.GPIO_ReadOutputData
                0x00000000       0x1c ..\obj\stm32f10x_gpio.o
 .text.GPIO_SetBits
                0x00000000       0x1c ..\obj\stm32f10x_gpio.o
 .text.GPIO_ResetBits
                0x00000000       0x1c ..\obj\stm32f10x_gpio.o
 .text.GPIO_Write
                0x00000000       0x1c ..\obj\stm32f10x_gpio.o
 .text.GPIO_PinLockConfig
                0x00000000       0x44 ..\obj\stm32f10x_gpio.o
 .text.GPIO_EventOutputConfig
                0x00000000       0x48 ..\obj\stm32f10x_gpio.o
 .text.GPIO_EventOutputCmd
                0x00000000       0x20 ..\obj\stm32f10x_gpio.o
 .text.GPIO_PinRemapConfig
                0x00000000       0xe0 ..\obj\stm32f10x_gpio.o
 .text.GPIO_EXTILineConfig
                0x00000000       0x7c ..\obj\stm32f10x_gpio.o
 .text.GPIO_ETH_MediaInterfaceConfig
                0x00000000       0x1c ..\obj\stm32f10x_gpio.o
 .text          0x00000000        0x0 ..\obj\main.o
 .text.vUtils_TrueDisplayMsg
                0x00000000       0x20 ..\obj\main.o
 .text.vUtils_Char
                0x00000000       0x30 ..\obj\main.o
 .text.vUtils_DisplayHexNoZero
                0x00000000       0x28 ..\obj\main.o
 .text.vUtils_ValToHexNoZero
                0x00000000       0x60 ..\obj\main.o
 .text.vUtils_DisplayBytes
                0x00000000       0xec ..\obj\main.o
 .text.send_to_uart
                0x00000000       0x2c ..\obj\main.o
 .text.send_str
                0x00000000       0x40 ..\obj\main.o
 .text          0x00000000        0x0 ..\obj\printf.o
 .bss           0x00000000        0x0 ..\obj\printf.o
 .text.snprintf
                0x00000000       0x30 ..\obj\printf.o
 .text.fprintf  0x00000000       0x2c ..\obj\printf.o
 .text.sprintf  0x00000000       0x2c ..\obj\printf.o
 .text.puts     0x00000000       0x38 ..\obj\printf.o
 .text          0x00000000        0x0 ..\obj\stm32f10x_rcc.o
 .bss           0x00000000        0x0 ..\obj\stm32f10x_rcc.o
 .text.RCC_DeInit
                0x00000000       0x64 ..\obj\stm32f10x_rcc.o
 .text.RCC_HSEConfig
                0x00000000       0x5c ..\obj\stm32f10x_rcc.o
 .text.RCC_WaitForHSEStartUp
                0x00000000       0x50 ..\obj\stm32f10x_rcc.o
 .text.RCC_AdjustHSICalibrationValue
                0x00000000       0x3c ..\obj\stm32f10x_rcc.o
 .text.RCC_HSICmd
                0x00000000       0x20 ..\obj\stm32f10x_rcc.o
 .text.RCC_PLLConfig
                0x00000000       0x3c ..\obj\stm32f10x_rcc.o
 .text.RCC_PLLCmd
                0x00000000       0x20 ..\obj\stm32f10x_rcc.o
 .text.RCC_PREDIV1Config
                0x00000000       0x40 ..\obj\stm32f10x_rcc.o
 .text.RCC_SYSCLKConfig
                0x00000000       0x38 ..\obj\stm32f10x_rcc.o
 .text.RCC_GetSYSCLKSource
                0x00000000       0x20 ..\obj\stm32f10x_rcc.o
 .text.RCC_HCLKConfig
                0x00000000       0x38 ..\obj\stm32f10x_rcc.o
 .text.RCC_PCLK1Config
                0x00000000       0x38 ..\obj\stm32f10x_rcc.o
 .text.RCC_PCLK2Config
                0x00000000       0x38 ..\obj\stm32f10x_rcc.o
 .text.RCC_ITConfig
                0x00000000       0x48 ..\obj\stm32f10x_rcc.o
 .text.RCC_USBCLKConfig
                0x00000000       0x1c ..\obj\stm32f10x_rcc.o
 .text.RCC_ADCCLKConfig
                0x00000000       0x38 ..\obj\stm32f10x_rcc.o
 .text.RCC_LSEConfig
                0x00000000       0x40 ..\obj\stm32f10x_rcc.o
 .text.RCC_LSICmd
                0x00000000       0x20 ..\obj\stm32f10x_rcc.o
 .text.RCC_RTCCLKConfig
                0x00000000       0x24 ..\obj\stm32f10x_rcc.o
 .text.RCC_RTCCLKCmd
                0x00000000       0x20 ..\obj\stm32f10x_rcc.o
 .text.RCC_APB2PeriphResetCmd
                0x00000000       0x3c ..\obj\stm32f10x_rcc.o
 .text.RCC_APB1PeriphResetCmd
                0x00000000       0x3c ..\obj\stm32f10x_rcc.o
 .text.RCC_BackupResetCmd
                0x00000000       0x20 ..\obj\stm32f10x_rcc.o
 .text.RCC_ClockSecuritySystemCmd
                0x00000000       0x20 ..\obj\stm32f10x_rcc.o
 .text.RCC_MCOConfig
                0x00000000       0x20 ..\obj\stm32f10x_rcc.o
 .text.RCC_GetFlagStatus
                0x00000000       0x74 ..\obj\stm32f10x_rcc.o
 .text.RCC_ClearFlag
                0x00000000       0x1c ..\obj\stm32f10x_rcc.o
 .text.RCC_GetITStatus
                0x00000000       0x38 ..\obj\stm32f10x_rcc.o
 .text.RCC_ClearITPendingBit
                0x00000000       0x20 ..\obj\stm32f10x_rcc.o
 .text          0x00000000        0x0 ..\obj\stm32f10x_exti.o
 .data          0x00000000        0x0 ..\obj\stm32f10x_exti.o
 .bss           0x00000000        0x0 ..\obj\stm32f10x_exti.o
 .text.EXTI_DeInit
                0x00000000       0x34 ..\obj\stm32f10x_exti.o
 .text.EXTI_Init
                0x00000000       0xdc ..\obj\stm32f10x_exti.o
 .text.EXTI_StructInit
                0x00000000       0x2c ..\obj\stm32f10x_exti.o
 .text.EXTI_GenerateSWInterrupt
                0x00000000       0x24 ..\obj\stm32f10x_exti.o
 .text.EXTI_GetFlagStatus
                0x00000000       0x34 ..\obj\stm32f10x_exti.o
 .text.EXTI_ClearFlag
                0x00000000       0x1c ..\obj\stm32f10x_exti.o
 .text.EXTI_GetITStatus
                0x00000000       0x48 ..\obj\stm32f10x_exti.o
 .text.EXTI_ClearITPendingBit
                0x00000000       0x1c ..\obj\stm32f10x_exti.o
 .debug_info    0x00000000      0x341 ..\obj\stm32f10x_exti.o
 .debug_abbrev  0x00000000      0x151 ..\obj\stm32f10x_exti.o
 .debug_aranges
                0x00000000       0x58 ..\obj\stm32f10x_exti.o
 .debug_ranges  0x00000000       0x48 ..\obj\stm32f10x_exti.o
 .debug_line    0x00000000      0x2cd ..\obj\stm32f10x_exti.o
 .debug_str     0x00000000      0x360 ..\obj\stm32f10x_exti.o
 .comment       0x00000000       0x71 ..\obj\stm32f10x_exti.o
 .ARM.attributes
                0x00000000       0x33 ..\obj\stm32f10x_exti.o
 .debug_frame   0x00000000       0xec ..\obj\stm32f10x_exti.o
 .text          0x00000000        0x0 ..\obj\stm32f10x_usart.o
 .data          0x00000000        0x0 ..\obj\stm32f10x_usart.o
 .bss           0x00000000        0x0 ..\obj\stm32f10x_usart.o
 .text.USART_DeInit
                0x00000000       0xb8 ..\obj\stm32f10x_usart.o
 .text.USART_StructInit
                0x00000000       0x38 ..\obj\stm32f10x_usart.o
 .text.USART_ClockInit
                0x00000000       0x54 ..\obj\stm32f10x_usart.o
 .text.USART_ClockStructInit
                0x00000000       0x2c ..\obj\stm32f10x_usart.o
 .text.USART_DMACmd
                0x00000000       0x48 ..\obj\stm32f10x_usart.o
 .text.USART_SetAddress
                0x00000000       0x38 ..\obj\stm32f10x_usart.o
 .text.USART_WakeUpConfig
                0x00000000       0x38 ..\obj\stm32f10x_usart.o
 .text.USART_ReceiverWakeUpCmd
                0x00000000       0x40 ..\obj\stm32f10x_usart.o
 .text.USART_LINBreakDetectLengthConfig
                0x00000000       0x38 ..\obj\stm32f10x_usart.o
 .text.USART_LINCmd
                0x00000000       0x40 ..\obj\stm32f10x_usart.o
 .text.USART_SendBreak
                0x00000000       0x24 ..\obj\stm32f10x_usart.o
 .text.USART_SetGuardTime
                0x00000000       0x3c ..\obj\stm32f10x_usart.o
 .text.USART_SetPrescaler
                0x00000000       0x38 ..\obj\stm32f10x_usart.o
 .text.USART_SmartCardCmd
                0x00000000       0x40 ..\obj\stm32f10x_usart.o
 .text.USART_SmartCardNACKCmd
                0x00000000       0x40 ..\obj\stm32f10x_usart.o
 .text.USART_HalfDuplexCmd
                0x00000000       0x40 ..\obj\stm32f10x_usart.o
 .text.USART_OverSampling8Cmd
                0x00000000       0x44 ..\obj\stm32f10x_usart.o
 .text.USART_OneBitMethodCmd
                0x00000000       0x40 ..\obj\stm32f10x_usart.o
 .text.USART_IrDAConfig
                0x00000000       0x38 ..\obj\stm32f10x_usart.o
 .text.USART_IrDACmd
                0x00000000       0x40 ..\obj\stm32f10x_usart.o
 .text.USART_ClearFlag
                0x00000000       0x20 ..\obj\stm32f10x_usart.o
 .text          0x00000000        0x0 ..\obj\syscalls.o
 .data          0x00000000        0x0 ..\obj\syscalls.o
 .bss           0x00000000        0x4 ..\obj\syscalls.o
 .text._sbrk    0x00000000       0x40 ..\obj\syscalls.o
 .text.link     0x00000000       0x1c ..\obj\syscalls.o
 .text._close   0x00000000       0x18 ..\obj\syscalls.o
 .text._fstat   0x00000000       0x20 ..\obj\syscalls.o
 .text._isatty  0x00000000       0x18 ..\obj\syscalls.o
 .text._lseek   0x00000000       0x1c ..\obj\syscalls.o
 .text._read    0x00000000       0x1c ..\obj\syscalls.o
 .text._write   0x00000000       0x50 ..\obj\syscalls.o
 .text.abort    0x00000000        0x8 ..\obj\syscalls.o
 .debug_info    0x00000000      0x534 ..\obj\syscalls.o
 .debug_abbrev  0x00000000      0x16d ..\obj\syscalls.o
 .debug_aranges
                0x00000000       0x60 ..\obj\syscalls.o
 .debug_ranges  0x00000000       0x50 ..\obj\syscalls.o
 .debug_line    0x00000000      0x2e0 ..\obj\syscalls.o
 .debug_str     0x00000000      0x39a ..\obj\syscalls.o
 .comment       0x00000000       0x71 ..\obj\syscalls.o
 .ARM.attributes
                0x00000000       0x33 ..\obj\syscalls.o
 .debug_frame   0x00000000      0x10c ..\obj\syscalls.o
 .text          0x00000000        0x0 ..\obj\stm32f10x_dma.o
 .data          0x00000000        0x0 ..\obj\stm32f10x_dma.o
 .bss           0x00000000        0x0 ..\obj\stm32f10x_dma.o
 .text.DMA_DeInit
                0x00000000      0x178 ..\obj\stm32f10x_dma.o
 .text.DMA_Cmd  0x00000000       0x38 ..\obj\stm32f10x_dma.o
 .text.DMA_ITConfig
                0x00000000       0x3c ..\obj\stm32f10x_dma.o
 .text.DMA_SetCurrDataCounter
                0x00000000       0x1c ..\obj\stm32f10x_dma.o
 .text.DMA_GetCurrDataCounter
                0x00000000       0x1c ..\obj\stm32f10x_dma.o
 .text.DMA_GetFlagStatus
                0x00000000       0x54 ..\obj\stm32f10x_dma.o
 .text.DMA_ClearFlag
                0x00000000       0x34 ..\obj\stm32f10x_dma.o
 .text.DMA_GetITStatus
                0x00000000       0x54 ..\obj\stm32f10x_dma.o
 .text.DMA_ClearITPendingBit
                0x00000000       0x34 ..\obj\stm32f10x_dma.o
 .text          0x00000000        0x0 ..\obj\misc.o
 .data          0x00000000        0x0 ..\obj\misc.o
 .bss           0x00000000        0x0 ..\obj\misc.o
 .text.NVIC_PriorityGroupConfig
                0x00000000       0x24 ..\obj\misc.o
 .text.NVIC_SetVectorTable
                0x00000000       0x2c ..\obj\misc.o
 .text.NVIC_SystemLPConfig
                0x00000000       0x40 ..\obj\misc.o
 .text.SysTick_CLKSourceConfig
                0x00000000       0x38 ..\obj\misc.o
 .data          0x00000000        0x0 c:/program files/gnu tools arm embedded/4.8 2014q2/bin/../lib/gcc/arm-none-eabi/4.8.4/armv7-m\libgcc.a(_arm_addsubdf3.o)
 .bss           0x00000000        0x0 c:/program files/gnu tools arm embedded/4.8 2014q2/bin/../lib/gcc/arm-none-eabi/4.8.4/armv7-m\libgcc.a(_arm_addsubdf3.o)
 .data          0x00000000        0x0 c:/program files/gnu tools arm embedded/4.8 2014q2/bin/../lib/gcc/arm-none-eabi/4.8.4/armv7-m\libgcc.a(_arm_muldivdf3.o)
 .bss           0x00000000        0x0 c:/program files/gnu tools arm embedded/4.8 2014q2/bin/../lib/gcc/arm-none-eabi/4.8.4/armv7-m\libgcc.a(_arm_muldivdf3.o)
 .data          0x00000000        0x0 c:/program files/gnu tools arm embedded/4.8 2014q2/bin/../lib/gcc/arm-none-eabi/4.8.4/armv7-m\libgcc.a(_arm_fixunsdfsi.o)
 .bss           0x00000000        0x0 c:/program files/gnu tools arm embedded/4.8 2014q2/bin/../lib/gcc/arm-none-eabi/4.8.4/armv7-m\libgcc.a(_arm_fixunsdfsi.o)

Memory Configuration

Name             Origin             Length             Attributes
rom              0x08000000         0x00020000         xr
ram              0x20000000         0x00002000         xrw
*default*        0x00000000         0xffffffff

Linker script and memory map

                0x20002000                _eram = 0x20002000

.text           0x08000000     0x266c
 *(.isr_vector)
 .isr_vector    0x08000000      0x124 ..\obj\startup_stm32f10x_md_vl.o
                0x08000000                g_pfnVectors
 *(.text*)
 .text.TIM_TimeBaseInit
                0x08000124       0xf8 ..\obj\stm32f10x_tim.o
                0x08000124                TIM_TimeBaseInit
 .text.TIM_TimeBaseStructInit
                0x0800021c       0x34 ..\obj\stm32f10x_tim.o
                0x0800021c                TIM_TimeBaseStructInit
 .text.TIM_Cmd  0x08000250       0x40 ..\obj\stm32f10x_tim.o
                0x08000250                TIM_Cmd
 .text.TIM_ITConfig
                0x08000290       0x48 ..\obj\stm32f10x_tim.o
                0x08000290                TIM_ITConfig
 .text.TIM_EncoderInterfaceConfig
                0x080002d8       0x8c ..\obj\stm32f10x_tim.o
                0x080002d8                TIM_EncoderInterfaceConfig
 .text.TIM_GetITStatus
                0x08000364       0x54 ..\obj\stm32f10x_tim.o
                0x08000364                TIM_GetITStatus
 .text.TIM_ClearITPendingBit
                0x080003b8       0x20 ..\obj\stm32f10x_tim.o
                0x080003b8                TIM_ClearITPendingBit
 .text.Default_Reset_Handler
                0x080003d8       0x60 ..\obj\startup_stm32f10x_md_vl.o
                0x080003d8                Default_Reset_Handler
                0x080003d8                Reset_Handler
 .text.Default_Handler
                0x08000438        0x8 ..\obj\startup_stm32f10x_md_vl.o
                0x08000438                EXTI2_IRQHandler
                0x08000438                DebugMon_Handler
                0x08000438                TIM1_CC_IRQHandler
                0x08000438                HardFault_Handler
                0x08000438                SysTick_Handler
                0x08000438                PVD_IRQHandler
                0x08000438                PendSV_Handler
                0x08000438                NMI_Handler
                0x08000438                EXTI3_IRQHandler
                0x08000438                EXTI0_IRQHandler
                0x08000438                I2C2_EV_IRQHandler
                0x08000438                TIM1_UP_TIM16_IRQHandler
                0x08000438                UsageFault_Handler
                0x08000438                SPI1_IRQHandler
                0x08000438                TAMPER_IRQHandler
                0x08000438                TIM6_DAC_IRQHandler
                0x08000438                DMA1_Channel4_IRQHandler
                0x08000438                ADC1_IRQHandler
                0x08000438                USART3_IRQHandler
                0x08000438                RTC_IRQHandler
                0x08000438                DMA1_Channel7_IRQHandler
                0x08000438                I2C1_EV_IRQHandler
                0x08000438                DMA1_Channel6_IRQHandler
                0x08000438                RCC_IRQHandler
                0x08000438                DMA1_Channel1_IRQHandler
                0x08000438                CEC_IRQHandler
                0x08000438                EXTI15_10_IRQHandler
                0x08000438                TIM7_IRQHandler
                0x08000438                EXTI9_5_IRQHandler
                0x08000438                SPI2_IRQHandler
                0x08000438                MemManage_Handler
                0x08000438                SVC_Handler
                0x08000438                DMA1_Channel5_IRQHandler
                0x08000438                EXTI4_IRQHandler
                0x08000438                TIM1_TRG_COM_TIM17_IRQHandler
                0x08000438                DMA1_Channel3_IRQHandler
                0x08000438                WWDG_IRQHandler
                0x08000438                EXTI1_IRQHandler
                0x08000438                RTCAlarm_IRQHandler
                0x08000438                USART2_IRQHandler
                0x08000438                I2C2_ER_IRQHandler
                0x08000438                DMA1_Channel2_IRQHandler
                0x08000438                FLASH_IRQHandler
                0x08000438                BusFault_Handler
                0x08000438                I2C1_ER_IRQHandler
                0x08000438                TIM1_BRK_TIM15_IRQHandler
 .text.SystemInit
                0x08000440       0x6c ..\obj\system_stm32f10x.o
                0x08000440                SystemInit
 .text.SetSysClock
                0x080004ac        0xc ..\obj\system_stm32f10x.o
 .text.SetSysClockTo24
                0x080004b8       0xd4 ..\obj\system_stm32f10x.o
 .text.GPIO_Init
                0x0800058c      0x178 ..\obj\stm32f10x_gpio.o
                0x0800058c                GPIO_Init
 .text.GPIO_ReadOutputDataBit
                0x08000704       0x34 ..\obj\stm32f10x_gpio.o
                0x08000704                GPIO_ReadOutputDataBit
 .text.GPIO_WriteBit
                0x08000738       0x30 ..\obj\stm32f10x_gpio.o
                0x08000738                GPIO_WriteBit
 .text.NVIC_EnableIRQ
                0x08000768       0x30 ..\obj\main.o
 .text.vUtils_DisplayMsg
                0x08000798       0x20 ..\obj\main.o
                0x08000798                vUtils_DisplayMsg
 .text.vUtils_Debug
                0x080007b8       0x58 ..\obj\main.o
                0x080007b8                vUtils_Debug
 .text.vUtils_DebugNoZero
                0x08000810       0x14 ..\obj\main.o
                0x08000810                vUtils_DebugNoZero
 .text.vUtils_String
                0x08000824       0x40 ..\obj\main.o
                0x08000824                vUtils_String
 .text.vUtils_DisplayHex
                0x08000864       0x28 ..\obj\main.o
                0x08000864                vUtils_DisplayHex
 .text.vUtils_DisplayDec
                0x0800088c       0x28 ..\obj\main.o
                0x0800088c                vUtils_DisplayDec
 .text.vUtils_ValToHex
                0x080008b4       0x64 ..\obj\main.o
                0x080008b4                vUtils_ValToHex
 .text.vUtils_ValToDec
                0x08000918       0x80 ..\obj\main.o
                0x08000918                vUtils_ValToDec
 .text.USART1_Config
                0x08000998      0x120 ..\obj\main.o
                0x08000998                USART1_Config
 .text.USART1_IRQHandler
                0x08000ab8      0x120 ..\obj\main.o
                0x08000ab8                USART1_IRQHandler
 .text.init_gpio
                0x08000bd8       0x8c ..\obj\main.o
                0x08000bd8                init_gpio
 .text.init_timer
                0x08000c64       0x94 ..\obj\main.o
                0x08000c64                init_timer
 .text.TIM4_Config
                0x08000cf8       0x58 ..\obj\main.o
                0x08000cf8                TIM4_Config
 .text.TIM3_IRQHandler
                0x08000d50       0xa8 ..\obj\main.o
                0x08000d50                TIM3_IRQHandler
 .text.TIM2_IRQHandler
                0x08000df8       0xac ..\obj\main.o
                0x08000df8                TIM2_IRQHandler
 .text.TIM4_IRQHandler
                0x08000ea4       0x14 ..\obj\main.o
                0x08000ea4                TIM4_IRQHandler
 .text.main     0x08000eb8      0x148 ..\obj\main.o
                0x08000eb8                main
 .text.Delay    0x08001000       0x20 ..\obj\main.o
                0x08001000                Delay
 .text.e_func   0x08001020       0x34 ..\obj\main.o
                0x08001020                e_func
 .text.PrintChar
                0x08001054       0x14 ..\obj\printf.o
                0x08001054                PrintChar
 .text.PutChar  0x08001068       0x20 ..\obj\printf.o
                0x08001068                PutChar
 .text.PutString
                0x08001088       0x3c ..\obj\printf.o
                0x08001088                PutString
 .text.PutUnsignedInt
                0x080010c4       0xa0 ..\obj\printf.o
                0x080010c4                PutUnsignedInt
 .text.PutSignedInt
                0x08001164       0xfc ..\obj\printf.o
                0x08001164                PutSignedInt
 .text.PutHexa  0x08001260       0xd4 ..\obj\printf.o
                0x08001260                PutHexa
 .text.vsnprintf
                0x08001334      0x254 ..\obj\printf.o
                0x08001334                vsnprintf
 .text.vsprintf
                0x08001588       0x24 ..\obj\printf.o
                0x08001588                vsprintf
 .text.vfprintf
                0x080015ac       0x68 ..\obj\printf.o
                0x080015ac                vfprintf
 .text.vprintf  0x08001614       0x28 ..\obj\printf.o
                0x08001614                vprintf
 .text.printf   0x0800163c       0x28 ..\obj\printf.o
                0x0800163c                printf
 .text.fputc    0x08001664       0x40 ..\obj\printf.o
                0x08001664                fputc
 .text.fputs    0x080016a4       0x48 ..\obj\printf.o
                0x080016a4                fputs
 .text.RCC_GetClocksFreq
                0x080016ec      0x15c ..\obj\stm32f10x_rcc.o
                0x080016ec                RCC_GetClocksFreq
 .text.RCC_AHBPeriphClockCmd
                0x08001848       0x3c ..\obj\stm32f10x_rcc.o
                0x08001848                RCC_AHBPeriphClockCmd
 .text.RCC_APB2PeriphClockCmd
                0x08001884       0x3c ..\obj\stm32f10x_rcc.o
                0x08001884                RCC_APB2PeriphClockCmd
 .text.RCC_APB1PeriphClockCmd
                0x080018c0       0x3c ..\obj\stm32f10x_rcc.o
                0x080018c0                RCC_APB1PeriphClockCmd
 .text.USART_Init
                0x080018fc      0x174 ..\obj\stm32f10x_usart.o
                0x080018fc                USART_Init
 .text.USART_Cmd
                0x08001a70       0x40 ..\obj\stm32f10x_usart.o
                0x08001a70                USART_Cmd
 .text.USART_ITConfig
                0x08001ab0       0x90 ..\obj\stm32f10x_usart.o
                0x08001ab0                USART_ITConfig
 .text.USART_SendData
                0x08001b40       0x24 ..\obj\stm32f10x_usart.o
                0x08001b40                USART_SendData
 .text.USART_ReceiveData
                0x08001b64       0x20 ..\obj\stm32f10x_usart.o
                0x08001b64                USART_ReceiveData
 .text.USART_GetFlagStatus
                0x08001b84       0x38 ..\obj\stm32f10x_usart.o
                0x08001b84                USART_GetFlagStatus
 .text.USART_GetITStatus
                0x08001bbc       0xb0 ..\obj\stm32f10x_usart.o
                0x08001bbc                USART_GetITStatus
 .text.USART_ClearITPendingBit
                0x08001c6c       0x38 ..\obj\stm32f10x_usart.o
                0x08001c6c                USART_ClearITPendingBit
 .text.DMA_Init
                0x08001ca4       0x7c ..\obj\stm32f10x_dma.o
                0x08001ca4                DMA_Init
 .text.DMA_StructInit
                0x08001d20       0x54 ..\obj\stm32f10x_dma.o
                0x08001d20                DMA_StructInit
 .text.NVIC_Init
                0x08001d74       0xc0 ..\obj\misc.o
                0x08001d74                NVIC_Init
 .text          0x08001e34      0x370 c:/program files/gnu tools arm embedded/4.8 2014q2/bin/../lib/gcc/arm-none-eabi/4.8.4/armv7-m\libgcc.a(_arm_addsubdf3.o)
                0x08001e34                __aeabi_drsub
                0x08001e3c                __aeabi_dsub
                0x08001e3c                __subdf3
                0x08001e40                __aeabi_dadd
                0x08001e40                __adddf3
                0x080020b8                __floatunsidf
                0x080020b8                __aeabi_ui2d
                0x080020d8                __floatsidf
                0x080020d8                __aeabi_i2d
                0x080020fc                __aeabi_f2d
                0x080020fc                __extendsfdf2
                0x08002138                __floatundidf
                0x08002138                __aeabi_ul2d
                0x08002148                __floatdidf
                0x08002148                __aeabi_l2d
 .text          0x080021a4      0x424 c:/program files/gnu tools arm embedded/4.8 2014q2/bin/../lib/gcc/arm-none-eabi/4.8.4/armv7-m\libgcc.a(_arm_muldivdf3.o)
                0x080021a4                __aeabi_dmul
                0x080021a4                __muldf3
                0x080023f8                __divdf3
                0x080023f8                __aeabi_ddiv
 .text          0x080025c8       0x40 c:/program files/gnu tools arm embedded/4.8 2014q2/bin/../lib/gcc/arm-none-eabi/4.8.4/armv7-m\libgcc.a(_arm_fixunsdfsi.o)
                0x080025c8                __aeabi_d2uiz
                0x080025c8                __fixunsdfsi
 *(.init)
 *(.fini)
 *crtbegin.o(.ctors)
 *crtbegin?.o(.ctors)
 *(EXCLUDE_FILE(*crtend.o *crtend?.o) .ctors)
 *(SORT(.ctors.*))
 *(.ctors)
 *crtbegin.o(.dtors)
 *crtbegin?.o(.dtors)
 *(EXCLUDE_FILE(*crtend.o *crtend?.o) .dtors)
 *(SORT(.dtors.*))
 *(.dtors)
 *(.rodata*)
 .rodata        0x08002608       0x40 ..\obj\main.o
 .rodata        0x08002648       0x24 ..\obj\printf.o
 *(.eh_fram e*)

.glue_7         0x0800266c        0x0
 .glue_7        0x00000000        0x0 linker stubs

.glue_7t        0x0800266c        0x0
 .glue_7t       0x00000000        0x0 linker stubs

.vfp11_veneer   0x0800266c        0x0
 .vfp11_veneer  0x00000000        0x0 linker stubs

.v4_bx          0x0800266c        0x0
 .v4_bx         0x00000000        0x0 linker stubs

.iplt           0x0800266c        0x0
 .iplt          0x00000000        0x0 ..\obj\stm32f10x_tim.o

.rel.dyn        0x0800266c        0x0
 .rel.iplt      0x00000000        0x0 ..\obj\stm32f10x_tim.o

.ARM.extab
 *(.ARM.extab* .gnu.linkonce.armextab.*)
                0x0800266c                __exidx_start = .

.ARM.exidx
 *(.ARM.exidx* .gnu.linkonce.armexidx.*)
                0x0800266c                __exidx_end = .
                0x0800266c                __etext = .
                0x0800266c                _sidata = __etext

.data           0x20000000      0x464 load address 0x0800266c
                0x20000000                __data_start__ = .
                0x20000000                _sdata = __data_start__
 *(vtable)
 *(.data*)
 .data          0x20000000       0x20 ..\obj\main.o
                0x20000000                pi
                0x20000008                capture_is_first_t3
                0x20000009                capture_is_first_t2
                0x2000000a                Tick_For_Wheel
                0x2000000c                dataBuffer
 .data          0x20000020      0x430 ..\obj\printf.o
                0x20000020                r
                0x20000448                _impure_ptr
 .data          0x20000450       0x14 ..\obj\stm32f10x_rcc.o
                0x20000464                . = ALIGN (0x4)
                0x20000464                PROVIDE (__preinit_array_start, .)
 *(.preinit_array)
                0x20000464                PROVIDE (__preinit_array_end, .)
                0x20000464                . = ALIGN (0x4)
                0x20000464                PROVIDE (__init_array_start, .)
 *(SORT(.init_array.*))
 *(.init_array)
                0x20000464                PROVIDE (__init_array_end, .)
                0x20000464                . = ALIGN (0x4)
                0x20000464                PROVIDE (__fini_array_start, .)
 *(SORT(.fini_array.*))
 *(.fini_array)
                0x20000464                PROVIDE (__fini_array_end, .)
 *(.jcr*)
                0x20000464                . = ALIGN (0x4)
                0x20000464                __data_end__ = .
                0x20000464                _edata = __data_end__

.igot.plt       0x20000464        0x0 load address 0x08002ad0
 .igot.plt      0x00000000        0x0 ..\obj\stm32f10x_tim.o

.bss            0x20000464       0x54 load address 0x08002ad0
                0x20000464                . = ALIGN (0x4)
                0x20000464                __bss_start__ = .
                0x20000464                _sbss = __bss_start__
 *(.bss*)
 .bss           0x20000464       0x10 ..\obj\main.o
                0x20000464                capture_is_ready_t3
                0x20000465                capture_is_ready_t2
                0x20000466                captured_direction_t2
                0x20000467                captured_direction_t3
                0x20000468                QE1_F_Inc
                0x2000046a                QE2_F_Inc
                0x2000046c                QE1_B_Inc
                0x2000046e                QE2_B_Inc
                0x20000470                QE1
                0x20000472                QE2
 *(COMMON)
 COMMON         0x20000474       0x42 ..\obj\main.o
                0x20000474                tmp
                0x20000478                dma
                0x200004a4                rx
                0x200004a8                NVIC_InitStructure1
                0x200004ac                GPIO_InitStructure
                0x200004b0                NVIC_InitStructure
                0x200004b4                tx_end
                0x200004b8                . = ALIGN (0x4)
 *fill*         0x200004b6        0x2 
                0x200004b8                __bss_end__ = .
                0x200004b8                _ebss = __bss_end__

.heap           0x200004b8        0x0
                0x200004b8                __end__ = .
                0x200004b8                _end = __end__
                0x200004b8                end = __end__
 *(.heap*)
                0x200004b8                __HeapLimit = .

.co_stack       0x200004b8      0x400 load address 0x08002b24
                0x200004b8                . = ALIGN (0x8)
 *(.co_stack .co_stack.*)
 .co_stack      0x200004b8      0x400 ..\obj\startup_stm32f10x_md_vl.o
                0x200004b8                pulStack
                0x20002000                __StackTop = (ORIGIN (ram) + 0x2000)
                0x20001c00                __StackLimit = (__StackTop - SIZEOF (.co_stack))
                0x20002000                PROVIDE (__stack, __StackTop)
                0x00000001                ASSERT ((__StackLimit >= __HeapLimit), region ram  overflowed with stack)
LOAD ..\obj\stm32f10x_tim.o
LOAD ..\obj\startup_stm32f10x_md_vl.o
LOAD ..\obj\stm32f10x_dbgmcu.o
LOAD ..\obj\system_stm32f10x.o
LOAD ..\obj\stm32f10x_pwr.o
LOAD ..\obj\stm32f10x_gpio.o
LOAD ..\obj\main.o
LOAD ..\obj\printf.o
LOAD ..\obj\stm32f10x_rcc.o
LOAD ..\obj\stm32f10x_exti.o
LOAD ..\obj\stm32f10x_usart.o
LOAD ..\obj\syscalls.o
LOAD ..\obj\stm32f10x_dma.o
LOAD ..\obj\misc.o
START GROUP
LOAD c:/program files/gnu tools arm embedded/4.8 2014q2/bin/../lib/gcc/arm-none-eabi/4.8.4/armv7-m\libgcc.a
LOAD c:/program files/gnu tools arm embedded/4.8 2014q2/bin/../lib/gcc/arm-none-eabi/4.8.4/../../../../arm-none-eabi/lib/armv7-m\libg.a
LOAD c:/program files/gnu tools arm embedded/4.8 2014q2/bin/../lib/gcc/arm-none-eabi/4.8.4/../../../../arm-none-eabi/lib/armv7-m\libc.a
END GROUP
OUTPUT(TestSTM32.elf elf32-littlearm)

.debug_info     0x00000000     0x6480
 .debug_info    0x00000000     0x1c58 ..\obj\stm32f10x_tim.o
 .debug_info    0x00001c58       0xe9 ..\obj\startup_stm32f10x_md_vl.o
 .debug_info    0x00001d41      0x41a ..\obj\system_stm32f10x.o
 .debug_info    0x0000215b      0x6e7 ..\obj\stm32f10x_gpio.o
 .debug_info    0x00002842     0x1167 ..\obj\main.o
 .debug_info    0x000039a9      0xe45 ..\obj\printf.o
 .debug_info    0x000047ee      0x8fa ..\obj\stm32f10x_rcc.o
 .debug_info    0x000050e8      0x9e8 ..\obj\stm32f10x_usart.o
 .debug_info    0x00005ad0      0x473 ..\obj\stm32f10x_dma.o
 .debug_info    0x00005f43      0x53d ..\obj\misc.o

.debug_abbrev   0x00000000     0x104f
 .debug_abbrev  0x00000000      0x1b0 ..\obj\stm32f10x_tim.o
 .debug_abbrev  0x000001b0       0xa7 ..\obj\startup_stm32f10x_md_vl.o
 .debug_abbrev  0x00000257      0x14c ..\obj\system_stm32f10x.o
 .debug_abbrev  0x000003a3      0x1c8 ..\obj\stm32f10x_gpio.o
 .debug_abbrev  0x0000056b      0x2b0 ..\obj\main.o
 .debug_abbrev  0x0000081b      0x27e ..\obj\printf.o
 .debug_abbrev  0x00000a99      0x1ba ..\obj\stm32f10x_rcc.o
 .debug_abbrev  0x00000c53      0x162 ..\obj\stm32f10x_usart.o
 .debug_abbrev  0x00000db5      0x155 ..\obj\stm32f10x_dma.o
 .debug_abbrev  0x00000f0a      0x145 ..\obj\misc.o

.debug_aranges  0x00000000      0x858
 .debug_aranges
                0x00000000      0x2f0 ..\obj\stm32f10x_tim.o
 .debug_aranges
                0x000002f0       0x28 ..\obj\startup_stm32f10x_md_vl.o
 .debug_aranges
                0x00000318       0x38 ..\obj\system_stm32f10x.o
 .debug_aranges
                0x00000350       0xa8 ..\obj\stm32f10x_gpio.o
 .debug_aranges
                0x000003f8       0xf0 ..\obj\main.o
 .debug_aranges
                0x000004e8       0xa0 ..\obj\printf.o
 .debug_aranges
                0x00000588      0x120 ..\obj\stm32f10x_rcc.o
 .debug_aranges
                0x000006a8      0x100 ..\obj\stm32f10x_usart.o
 .debug_aranges
                0x000007a8       0x70 ..\obj\stm32f10x_dma.o
 .debug_aranges
                0x00000818       0x40 ..\obj\misc.o

.debug_ranges   0x00000000      0x7b8
 .debug_ranges  0x00000000      0x2e0 ..\obj\stm32f10x_tim.o
 .debug_ranges  0x000002e0       0x18 ..\obj\startup_stm32f10x_md_vl.o
 .debug_ranges  0x000002f8       0x28 ..\obj\system_stm32f10x.o
 .debug_ranges  0x00000320       0x98 ..\obj\stm32f10x_gpio.o
 .debug_ranges  0x000003b8       0xe0 ..\obj\main.o
 .debug_ranges  0x00000498       0x90 ..\obj\printf.o
 .debug_ranges  0x00000528      0x110 ..\obj\stm32f10x_rcc.o
 .debug_ranges  0x00000638       0xf0 ..\obj\stm32f10x_usart.o
 .debug_ranges  0x00000728       0x60 ..\obj\stm32f10x_dma.o
 .debug_ranges  0x00000788       0x30 ..\obj\misc.o

.debug_line     0x00000000     0x2a70
 .debug_line    0x00000000      0xaa3 ..\obj\stm32f10x_tim.o
 .debug_line    0x00000aa3       0xb4 ..\obj\startup_stm32f10x_md_vl.o
 .debug_line    0x00000b57      0x223 ..\obj\system_stm32f10x.o
 .debug_line    0x00000d7a      0x3d7 ..\obj\stm32f10x_gpio.o
 .debug_line    0x00001151      0x633 ..\obj\main.o
 .debug_line    0x00001784      0x394 ..\obj\printf.o
 .debug_line    0x00001b18      0x4fd ..\obj\stm32f10x_rcc.o
 .debug_line    0x00002015      0x4c2 ..\obj\stm32f10x_usart.o
 .debug_line    0x000024d7      0x32c ..\obj\stm32f10x_dma.o
 .debug_line    0x00002803      0x26d ..\obj\misc.o

.debug_str      0x00000000     0x2b13
 .debug_str     0x00000000      0xd31 ..\obj\stm32f10x_tim.o
                                0xdf4 (size before relaxing)
 .debug_str     0x00000d31       0xc2 ..\obj\startup_stm32f10x_md_vl.o
                                0x159 (size before relaxing)
 .debug_str     0x00000df3      0x171 ..\obj\system_stm32f10x.o
                                0x2f1 (size before relaxing)
 .debug_str     0x00000f64      0x38d ..\obj\stm32f10x_gpio.o
                                0x530 (size before relaxing)
 .debug_str     0x000012f1      0x8eb ..\obj\main.o
                                0xd84 (size before relaxing)
 .debug_str     0x00001bdc      0x4ce ..\obj\printf.o
                                0x67b (size before relaxing)
 .debug_str     0x000020aa      0x42c ..\obj\stm32f10x_rcc.o
                                0x684 (size before relaxing)
 .debug_str     0x000024d6      0x3b8 ..\obj\stm32f10x_usart.o
                                0x6a7 (size before relaxing)
 .debug_str     0x0000288e      0x14e ..\obj\stm32f10x_dma.o
                                0x3ce (size before relaxing)
 .debug_str     0x000029dc      0x137 ..\obj\misc.o
                                0x3d5 (size before relaxing)

.comment        0x00000000       0x70
 .comment       0x00000000       0x70 ..\obj\stm32f10x_tim.o
                                 0x71 (size before relaxing)
 .comment       0x00000000       0x71 ..\obj\startup_stm32f10x_md_vl.o
 .comment       0x00000000       0x71 ..\obj\system_stm32f10x.o
 .comment       0x00000000       0x71 ..\obj\stm32f10x_gpio.o
 .comment       0x00000000       0x71 ..\obj\main.o
 .comment       0x00000000       0x71 ..\obj\printf.o
 .comment       0x00000000       0x71 ..\obj\stm32f10x_rcc.o
 .comment       0x00000000       0x71 ..\obj\stm32f10x_usart.o
 .comment       0x00000000       0x71 ..\obj\stm32f10x_dma.o
 .comment       0x00000000       0x71 ..\obj\misc.o

.ARM.attributes
                0x00000000       0x33
 .ARM.attributes
                0x00000000       0x33 ..\obj\stm32f10x_tim.o
 .ARM.attributes
                0x00000033       0x33 ..\obj\startup_stm32f10x_md_vl.o
 .ARM.attributes
                0x00000066       0x33 ..\obj\system_stm32f10x.o
 .ARM.attributes
                0x00000099       0x33 ..\obj\stm32f10x_gpio.o
 .ARM.attributes
                0x000000cc       0x33 ..\obj\main.o
 .ARM.attributes
                0x000000ff       0x33 ..\obj\printf.o
 .ARM.attributes
                0x00000132       0x33 ..\obj\stm32f10x_rcc.o
 .ARM.attributes
                0x00000165       0x33 ..\obj\stm32f10x_usart.o
 .ARM.attributes
                0x00000198       0x33 ..\obj\stm32f10x_dma.o
 .ARM.attributes
                0x000001cb       0x33 ..\obj\misc.o
 .ARM.attributes
                0x000001fe       0x1d c:/program files/gnu tools arm embedded/4.8 2014q2/bin/../lib/gcc/arm-none-eabi/4.8.4/armv7-m\libgcc.a(_arm_addsubdf3.o)
 .ARM.attributes
                0x0000021b       0x1d c:/program files/gnu tools arm embedded/4.8 2014q2/bin/../lib/gcc/arm-none-eabi/4.8.4/armv7-m\libgcc.a(_arm_muldivdf3.o)
 .ARM.attributes
                0x00000238       0x1d c:/program files/gnu tools arm embedded/4.8 2014q2/bin/../lib/gcc/arm-none-eabi/4.8.4/armv7-m\libgcc.a(_arm_fixunsdfsi.o)

.debug_frame    0x00000000     0x1b40
 .debug_frame   0x00000000      0xa20 ..\obj\stm32f10x_tim.o
 .debug_frame   0x00000a20       0x48 ..\obj\startup_stm32f10x_md_vl.o
 .debug_frame   0x00000a68       0x80 ..\obj\system_stm32f10x.o
 .debug_frame   0x00000ae8      0x210 ..\obj\stm32f10x_gpio.o
 .debug_frame   0x00000cf8      0x33c ..\obj\main.o
 .debug_frame   0x00001034      0x244 ..\obj\printf.o
 .debug_frame   0x00001278      0x3a4 ..\obj\stm32f10x_rcc.o
 .debug_frame   0x0000161c      0x344 ..\obj\stm32f10x_usart.o
 .debug_frame   0x00001960      0x144 ..\obj\stm32f10x_dma.o
 .debug_frame   0x00001aa4       0x9c ..\obj\misc.o
